target datalayout = "e-m:e-p270:32:32-p271:32:32-p272:64:64-i64:64-i128:128-f80:128-n8:16:32:64-S128"
target triple = "x86_64-pc-linux-gnu"

%struct.dt_imageio_jpeg_error_mgr = type { %struct.jpeg_error_mgr, [1 x %struct.__jmp_buf_tag] }
%struct.jpeg_error_mgr = type { ptr, ptr, ptr, ptr, ptr, i32, %union.anon, i32, i64, ptr, i32, ptr, i32, i32 }
%union.anon = type { [8 x i32], [48 x i8] }
%struct.__jmp_buf_tag = type { [8 x i64], i32, %struct.__sigset_t }
%struct.__sigset_t = type { [16 x i64] }
%struct.dt_imageio_jpeg_t = type { i32, i32, %struct.jpeg_source_mgr, %struct.jpeg_destination_mgr, %struct.jpeg_decompress_struct, %struct.jpeg_compress_struct, ptr }
%struct.jpeg_source_mgr = type { ptr, i64, ptr, ptr, ptr, ptr, ptr }
%struct.jpeg_destination_mgr = type { ptr, i64, ptr, ptr, ptr }
%struct.jpeg_decompress_struct = type { ptr, ptr, ptr, ptr, i32, i32, ptr, i32, i32, i32, i32, i32, i32, i32, double, i32, i32, i32, i32, i32, i32, i32, i32, i32, i32, i32, i32, i32, i32, i32, i32, i32, i32, ptr, i32, i32, i32, i32, i32, ptr, [4 x ptr], [4 x ptr], [4 x ptr], i32, ptr, i32, i32, i32, [16 x i8], [16 x i8], [16 x i8], i32, i32, i8, i8, i8, i16, i16, i32, i8, i32, ptr, i32, i32, i32, i32, i32, ptr, i32, [4 x ptr], i32, i32, i32, [10 x i32], i32, i32, i32, i32, i32, ptr, i32, i32, ptr, ptr, ptr, ptr, ptr, ptr, ptr, ptr, ptr, ptr, ptr }
%struct.jpeg_compress_struct = type { ptr, ptr, ptr, ptr, i32, i32, ptr, i32, i32, i32, i32, double, i32, i32, i32, i32, i32, i32, i32, ptr, [4 x ptr], [4 x i32], [4 x ptr], [4 x ptr], [16 x i8], [16 x i8], [16 x i8], i32, ptr, i32, i32, i32, i32, i32, i32, i32, i32, i32, i32, i8, i8, i8, i16, i16, i32, i32, i32, i32, i32, i32, i32, i32, i32, [4 x ptr], i32, i32, i32, [10 x i32], i32, i32, i32, i32, i32, ptr, i32, ptr, ptr, ptr, ptr, ptr, ptr, ptr, ptr, ptr, ptr, i32 }

; Function Attrs: nounwind uwtable
define internal void @setup_read_icc_profile(ptr noundef %0) #0 {
  %2 = alloca ptr, align 8
  store ptr %0, ptr %2, align 8, !tbaa !70
  %3 = load ptr, ptr %2, align 8, !tbaa !70
  call void @jpeg_save_markers(ptr noundef %3, i32 noundef 226, i32 noundef 65535)
  ret void
}

; Function Attrs: nounwind uwtable
define internal void @setup_read_exif(ptr noundef %0) #0 {
  %2 = alloca ptr, align 8
  store ptr %0, ptr %2, align 8, !tbaa !70
  %3 = load ptr, ptr %2, align 8, !tbaa !70
  call void @jpeg_save_markers(ptr noundef %3, i32 noundef 225, i32 noundef 65535)
  ret void
}

; Function Attrs: nounwind uwtable
define i32 @dt_imageio_jpeg_decompress_header(ptr noundef %0, i64 noundef %1, ptr noundef %2) #0 {
  %4 = alloca i32, align 4
  %5 = alloca ptr, align 8
  %6 = alloca i64, align 8
  %7 = alloca ptr, align 8
  %8 = alloca %struct.dt_imageio_jpeg_error_mgr, align 8
  %9 = alloca i32, align 4
  store ptr %0, ptr %5, align 8, !tbaa !6
  store i64 %1, ptr %6, align 8, !tbaa !10
  store ptr %2, ptr %7, align 8, !tbaa !12
  %10 = load ptr, ptr %7, align 8, !tbaa !12
  %11 = getelementptr inbounds nuw %struct.dt_imageio_jpeg_t, ptr %10, i32 0, i32 4
  call void @jpeg_CreateDecompress(ptr noundef %11, i32 noundef 80, i64 noundef 656)
  %12 = load ptr, ptr %7, align 8, !tbaa !12
  %13 = getelementptr inbounds nuw %struct.dt_imageio_jpeg_t, ptr %12, i32 0, i32 2
  %14 = getelementptr inbounds nuw %struct.jpeg_source_mgr, ptr %13, i32 0, i32 2
  store ptr @dt_imageio_jpeg_init_source, ptr %14, align 8, !tbaa !14
  %15 = load ptr, ptr %7, align 8, !tbaa !12
  %16 = getelementptr inbounds nuw %struct.dt_imageio_jpeg_t, ptr %15, i32 0, i32 2
  %17 = getelementptr inbounds nuw %struct.jpeg_source_mgr, ptr %16, i32 0, i32 3
  store ptr @dt_imageio_jpeg_fill_input_buffer, ptr %17, align 8, !tbaa !53
  %18 = load ptr, ptr %7, align 8, !tbaa !12
  %19 = getelementptr inbounds nuw %struct.dt_imageio_jpeg_t, ptr %18, i32 0, i32 2
  %20 = getelementptr inbounds nuw %struct.jpeg_source_mgr, ptr %19, i32 0, i32 4
  store ptr @dt_imageio_jpeg_skip_input_data, ptr %20, align 8, !tbaa !54
  %21 = load ptr, ptr %7, align 8, !tbaa !12
  %22 = getelementptr inbounds nuw %struct.dt_imageio_jpeg_t, ptr %21, i32 0, i32 2
  %23 = getelementptr inbounds nuw %struct.jpeg_source_mgr, ptr %22, i32 0, i32 5
  store ptr @jpeg_resync_to_restart, ptr %23, align 8, !tbaa !55
  %24 = load ptr, ptr %7, align 8, !tbaa !12
  %25 = getelementptr inbounds nuw %struct.dt_imageio_jpeg_t, ptr %24, i32 0, i32 2
  %26 = getelementptr inbounds nuw %struct.jpeg_source_mgr, ptr %25, i32 0, i32 6
  store ptr @dt_imageio_jpeg_term_source, ptr %26, align 8, !tbaa !56
  %27 = load ptr, ptr %5, align 8, !tbaa !6
  %28 = load ptr, ptr %7, align 8, !tbaa !12
  %29 = getelementptr inbounds nuw %struct.dt_imageio_jpeg_t, ptr %28, i32 0, i32 2
  %30 = getelementptr inbounds nuw %struct.jpeg_source_mgr, ptr %29, i32 0, i32 0
  store ptr %27, ptr %30, align 8, !tbaa !57
  %31 = load i64, ptr %6, align 8, !tbaa !10
  %32 = load ptr, ptr %7, align 8, !tbaa !12
  %33 = getelementptr inbounds nuw %struct.dt_imageio_jpeg_t, ptr %32, i32 0, i32 2
  %34 = getelementptr inbounds nuw %struct.jpeg_source_mgr, ptr %33, i32 0, i32 1
  store i64 %31, ptr %34, align 8, !tbaa !58
  call void @llvm.lifetime.start.p0(i64 368, ptr %8) #9
  %35 = getelementptr inbounds nuw %struct.dt_imageio_jpeg_error_mgr, ptr %8, i32 0, i32 0
  %36 = call ptr @jpeg_std_error(ptr noundef %35)
  %37 = load ptr, ptr %7, align 8, !tbaa !12
  %38 = getelementptr inbounds nuw %struct.dt_imageio_jpeg_t, ptr %37, i32 0, i32 4
  %39 = getelementptr inbounds nuw %struct.jpeg_decompress_struct, ptr %38, i32 0, i32 0
  store ptr %36, ptr %39, align 8, !tbaa !59
  %40 = getelementptr inbounds nuw %struct.dt_imageio_jpeg_error_mgr, ptr %8, i32 0, i32 0
  %41 = getelementptr inbounds nuw %struct.jpeg_error_mgr, ptr %40, i32 0, i32 0
  store ptr @dt_imageio_jpeg_error_exit, ptr %41, align 8, !tbaa !60
  %42 = getelementptr inbounds nuw %struct.dt_imageio_jpeg_error_mgr, ptr %8, i32 0, i32 1
  %43 = getelementptr inbounds [1 x %struct.__jmp_buf_tag], ptr %42, i64 0, i64 0
  %44 = call i32 @_setjmp(ptr noundef %43) #10
  %45 = icmp ne i32 %44, 0
  br i1 %45, label %46, label %49

46:                                               ; preds = %3
  %47 = load ptr, ptr %7, align 8, !tbaa !12
  %48 = getelementptr inbounds nuw %struct.dt_imageio_jpeg_t, ptr %47, i32 0, i32 4
  call void @jpeg_destroy_decompress(ptr noundef %48)
  store i32 1, ptr %4, align 4
  store i32 1, ptr %9, align 4
  br label %80

49:                                               ; preds = %3
  %50 = load ptr, ptr %7, align 8, !tbaa !12
  %51 = getelementptr inbounds nuw %struct.dt_imageio_jpeg_t, ptr %50, i32 0, i32 2
  %52 = load ptr, ptr %7, align 8, !tbaa !12
  %53 = getelementptr inbounds nuw %struct.dt_imageio_jpeg_t, ptr %52, i32 0, i32 4
  %54 = getelementptr inbounds nuw %struct.jpeg_decompress_struct, ptr %53, i32 0, i32 6
  store ptr %51, ptr %54, align 8, !tbaa !63
  %55 = load ptr, ptr %7, align 8, !tbaa !12
  %56 = getelementptr inbounds nuw %struct.dt_imageio_jpeg_t, ptr %55, i32 0, i32 4
  call void @setup_read_exif(ptr noundef %56)
  %57 = load ptr, ptr %7, align 8, !tbaa !12
  %58 = getelementptr inbounds nuw %struct.dt_imageio_jpeg_t, ptr %57, i32 0, i32 4
  call void @setup_read_icc_profile(ptr noundef %58)
  %59 = load ptr, ptr %7, align 8, !tbaa !12
  %60 = getelementptr inbounds nuw %struct.dt_imageio_jpeg_t, ptr %59, i32 0, i32 4
  %61 = call i32 @jpeg_read_header(ptr noundef %60, i32 noundef 1)
  %62 = load ptr, ptr %7, align 8, !tbaa !12
  %63 = getelementptr inbounds nuw %struct.dt_imageio_jpeg_t, ptr %62, i32 0, i32 4
  %64 = getelementptr inbounds nuw %struct.jpeg_decompress_struct, ptr %63, i32 0, i32 11
  store i32 7, ptr %64, align 8, !tbaa !64
  %65 = load ptr, ptr %7, align 8, !tbaa !12
  %66 = getelementptr inbounds nuw %struct.dt_imageio_jpeg_t, ptr %65, i32 0, i32 4
  %67 = getelementptr inbounds nuw %struct.jpeg_decompress_struct, ptr %66, i32 0, i32 29
  store i32 4, ptr %67, align 8, !tbaa !65
  %68 = load ptr, ptr %7, align 8, !tbaa !12
  %69 = getelementptr inbounds nuw %struct.dt_imageio_jpeg_t, ptr %68, i32 0, i32 4
  %70 = getelementptr inbounds nuw %struct.jpeg_decompress_struct, ptr %69, i32 0, i32 7
  %71 = load i32, ptr %70, align 8, !tbaa !66
  %72 = load ptr, ptr %7, align 8, !tbaa !12
  %73 = getelementptr inbounds nuw %struct.dt_imageio_jpeg_t, ptr %72, i32 0, i32 0
  store i32 %71, ptr %73, align 8, !tbaa !67
  %74 = load ptr, ptr %7, align 8, !tbaa !12
  %75 = getelementptr inbounds nuw %struct.dt_imageio_jpeg_t, ptr %74, i32 0, i32 4
  %76 = getelementptr inbounds nuw %struct.jpeg_decompress_struct, ptr %75, i32 0, i32 8
  %77 = load i32, ptr %76, align 4, !tbaa !68
  %78 = load ptr, ptr %7, align 8, !tbaa !12
  %79 = getelementptr inbounds nuw %struct.dt_imageio_jpeg_t, ptr %78, i32 0, i32 1
  store i32 %77, ptr %79, align 4, !tbaa !69
  store i32 0, ptr %4, align 4
  store i32 1, ptr %9, align 4
  br label %80

80:                                               ; preds = %49, %46
  call void @llvm.lifetime.end.p0(i64 368, ptr %8) #9
  %81 = load i32, ptr %4, align 4
  ret i32 %81
}