; Function Attrs: nounwind uwtable
define range(i32 0, 2) i32 @dt_imageio_jpeg_decompress_header(ptr noundef %0, i64 noundef %1, ptr noundef %2) local_unnamed_addr #0 {
  %4 = alloca %struct.dt_imageio_jpeg_error_mgr, align 8
  %5 = getelementptr inbounds nuw i8, ptr %2, i64 104
  call void @jpeg_CreateDecompress(ptr noundef nonnull %5, i32 noundef 80, i64 noundef 656) #14
  %6 = getelementptr inbounds nuw i8, ptr %2, i64 8
  %7 = getelementptr inbounds nuw i8, ptr %2, i64 24
  store ptr @dt_imageio_jpeg_init_source, ptr %7, align 8, !tbaa !6
  %8 = getelementptr inbounds nuw i8, ptr %2, i64 32
  store ptr @dt_imageio_jpeg_fill_input_buffer, ptr %8, align 8, !tbaa !49
  %9 = getelementptr inbounds nuw i8, ptr %2, i64 40
  store ptr @dt_imageio_jpeg_skip_input_data, ptr %9, align 8, !tbaa !50
  %10 = getelementptr inbounds nuw i8, ptr %2, i64 48
  store ptr @jpeg_resync_to_restart, ptr %10, align 8, !tbaa !51
  %11 = getelementptr inbounds nuw i8, ptr %2, i64 56
  store ptr @dt_imageio_jpeg_term_source, ptr %11, align 8, !tbaa !52
  store ptr %0, ptr %6, align 8, !tbaa !53
  %12 = getelementptr inbounds nuw i8, ptr %2, i64 16
  store i64 %1, ptr %12, align 8, !tbaa !54
  call void @llvm.lifetime.start.p0(i64 368, ptr nonnull %4) #14
  %13 = call ptr @jpeg_std_error(ptr noundef nonnull %4) #14
  store ptr %13, ptr %5, align 8, !tbaa !55
  store ptr @dt_imageio_jpeg_error_exit, ptr %4, align 8, !tbaa !56
  %14 = getelementptr inbounds nuw i8, ptr %4, i64 168
  %15 = call i32 @_setjmp(ptr noundef nonnull %14) #15
  %.not = icmp eq i32 %15, 0
  br i1 %.not, label %17, label %16

16:                                               ; preds = %3
  call void @jpeg_destroy_decompress(ptr noundef nonnull %5) #14
  br label %27

17:                                               ; preds = %3
  %18 = getelementptr inbounds nuw i8, ptr %2, i64 144
  store ptr %6, ptr %18, align 8, !tbaa !59
  call void @jpeg_save_markers(ptr noundef nonnull %5, i32 noundef 225, i32 noundef 65535) #14
  call void @jpeg_save_markers(ptr noundef nonnull %5, i32 noundef 226, i32 noundef 65535) #14
  %19 = call i32 @jpeg_read_header(ptr noundef nonnull %5, i32 noundef 1) #14
  %20 = getelementptr inbounds nuw i8, ptr %2, i64 168
  store i32 7, ptr %20, align 8, !tbaa !60
  %21 = getelementptr inbounds nuw i8, ptr %2, i64 248
  store i32 4, ptr %21, align 8, !tbaa !61
  %22 = getelementptr inbounds nuw i8, ptr %2, i64 152
  %23 = load i32, ptr %22, align 8, !tbaa !62
  store i32 %23, ptr %2, align 8, !tbaa !63
  %24 = getelementptr inbounds nuw i8, ptr %2, i64 156
  %25 = load i32, ptr %24, align 4, !tbaa !64
  %26 = getelementptr inbounds nuw i8, ptr %2, i64 4
  store i32 %25, ptr %26, align 4, !tbaa !65
  br label %27

27:                                               ; preds = %17, %16
  %.0 = phi i32 [ 1, %16 ], [ 0, %17 ]
  call void @llvm.lifetime.end.p0(i64 368, ptr nonnull %4) #14
  ret i32 %.0
}